Certificate:
    Data:
        Version: 3 (0x2)
        Serial Number:
            f2:c4:9f:0e:57:19:6b:a6:0c:e4:83:f8:57:28:c9:3d
        Signature Algorithm: sha256WithRSAEncryption
        Issuer: CN=2266615
        Validity
            Not Before: Dec 12 20:37:22 2025 GMT
            Not After : Nov 26 20:37:22 2028 GMT
        Subject: CN=vpn_client_2
        Subject Public Key Info:
            Public Key Algorithm: rsaEncryption
                RSA Public-Key: (2048 bit)
                Modulus:
                    00:ec:c6:f6:f2:af:2d:03:2f:76:3a:8a:fd:ef:7f:
                    be:ef:84:b7:0f:3b:76:c3:e1:ef:f1:7c:bf:7c:f8:
                    bd:4d:99:56:b9:6c:89:4d:3e:4e:4b:2a:a4:fc:d0:
                    e5:2c:37:aa:17:92:a7:8d:0e:2e:60:13:de:32:26:
                    7d:13:3b:26:69:af:f9:a1:e3:24:64:3d:e1:4a:52:
                    8e:e1:87:47:f9:7f:68:6f:bc:80:2c:68:7a:d1:7d:
                    b5:04:d1:7f:e4:a7:7c:6e:28:75:dd:7d:f2:6c:92:
                    2c:73:cf:9f:bb:ea:02:bc:b8:1b:f7:75:7c:68:af:
                    9a:fc:80:c9:73:a5:7f:3b:6e:de:78:5a:d8:d2:4b:
                    fb:8a:9b:13:fb:7d:a8:55:b9:e5:50:70:37:4a:ba:
                    53:04:1b:4f:2d:d5:90:0e:b6:70:3e:62:ca:c2:fd:
                    18:d9:9f:76:38:b7:fe:6e:a7:34:ff:3a:d8:bb:b5:
                    60:24:89:3f:a9:9b:62:4b:2c:7e:e5:70:de:76:eb:
                    25:2e:17:09:cf:f5:83:c9:49:4c:a4:3c:44:fa:69:
                    7c:b5:6e:a1:ae:4d:a3:2c:a5:2f:e0:0f:af:89:6b:
                    f0:0e:4f:c5:86:76:64:f1:ef:20:ed:8f:4f:fe:a0:
                    b2:f9:ec:8b:de:16:3b:b8:94:a4:f1:6e:74:73:dd:
                    ae:5f
                Exponent: 65537 (0x10001)
        X509v3 extensions:
            X509v3 Basic Constraints: 
                CA:FALSE
            X509v3 Subject Key Identifier: 
                E1:62:47:69:D7:9F:5F:09:14:F6:01:02:45:3B:0D:5C:9F:C1:C7:D7
            X509v3 Authority Key Identifier: 
                keyid:B9:C6:88:26:0E:B4:1F:87:72:80:9A:D0:DD:D8:6A:90:CA:10:43:1A
                DirName:/CN=2266615
                serial:66:06:62:2C:68:4D:5E:07:2D:98:F6:DA:FB:C7:14:1B:79:9F:A2:62

            X509v3 Extended Key Usage: 
                TLS Web Client Authentication
            X509v3 Key Usage: 
                Digital Signature
    Signature Algorithm: sha256WithRSAEncryption
         3d:df:3e:b5:33:fb:70:be:0c:57:b7:5e:4e:d7:8a:61:71:a9:
         88:38:12:fc:55:0a:46:14:49:3f:0a:b0:5f:86:c0:84:bc:f1:
         37:63:ec:59:a8:cb:58:17:38:bd:01:15:3f:6d:2f:26:6e:28:
         82:f5:5b:91:2f:71:b3:aa:da:69:fb:8a:3f:e6:d2:49:2d:95:
         40:74:20:ea:17:f1:7a:2e:49:da:81:22:a1:be:12:83:72:75:
         51:7b:e1:f5:f5:16:09:8c:c9:b3:ed:71:42:23:60:7f:a9:c5:
         28:c8:95:10:dc:bd:c5:54:d1:a4:78:52:b9:c4:5b:05:23:b9:
         8d:51:44:31:33:0d:65:75:7f:ab:2b:be:68:78:48:bf:72:ee:
         41:e2:74:b6:ea:c1:f0:c3:64:e5:be:1b:20:81:12:75:95:34:
         70:97:89:ac:fc:21:a3:2e:cb:b4:ca:35:18:57:ee:77:fa:10:
         53:58:d7:a3:91:d7:69:3e:ff:cd:f3:a6:5a:28:4c:14:74:1e:
         03:0e:c0:01:5d:d3:bd:69:75:2c:5f:14:f1:b3:ab:40:fb:20:
         d9:5d:b3:08:1d:8f:22:2f:b1:7f:9d:06:f8:8d:8f:f7:8f:5f:
         bc:b2:57:dd:d2:58:39:66:f4:20:c5:da:55:03:68:bb:85:40:
         83:bf:e6:eb
-----BEGIN CERTIFICATE-----
MIIDUzCCAjugAwIBAgIRAPLEnw5XGWumDOSD+FcoyT0wDQYJKoZIhvcNAQELBQAw
EjEQMA4GA1UEAwwHMjI2NjYxNTAeFw0yNTEyMTIyMDM3MjJaFw0yODExMjYyMDM3
MjJaMBcxFTATBgNVBAMMDHZwbl9jbGllbnRfMjCCASIwDQYJKoZIhvcNAQEBBQAD
ggEPADCCAQoCggEBAOzG9vKvLQMvdjqK/e9/vu+Etw87dsPh7/F8v3z4vU2ZVrls
iU0+TksqpPzQ5Sw3qheSp40OLmAT3jImfRM7Jmmv+aHjJGQ94UpSjuGHR/l/aG+8
gCxoetF9tQTRf+SnfG4odd198mySLHPPn7vqAry4G/d1fGivmvyAyXOlfztu3nha
2NJL+4qbE/t9qFW55VBwN0q6UwQbTy3VkA62cD5iysL9GNmfdji3/m6nNP862Lu1
YCSJP6mbYkssfuVw3nbrJS4XCc/1g8lJTKQ8RPppfLVuoa5NoyylL+APr4lr8A5P
xYZ2ZPHvIO2PT/6gsvnsi94WO7iUpPFudHPdrl8CAwEAAaOBnjCBmzAJBgNVHRME
AjAAMB0GA1UdDgQWBBThYkdp159fCRT2AQJFOw1cn8HH1zBNBgNVHSMERjBEgBS5
xogmDrQfh3KAmtDd2GqQyhBDGqEWpBQwEjEQMA4GA1UEAwwHMjI2NjYxNYIUZgZi
LGhNXgctmPba+8cUG3mfomIwEwYDVR0lBAwwCgYIKwYBBQUHAwIwCwYDVR0PBAQD
AgeAMA0GCSqGSIb3DQEBCwUAA4IBAQA93z61M/twvgxXt15O14phcamIOBL8VQpG
FEk/CrBfhsCEvPE3Y+xZqMtYFzi9ARU/bS8mbiiC9VuRL3Gzqtpp+4o/5tJJLZVA
dCDqF/F6LknagSKhvhKDcnVRe+H19RYJjMmz7XFCI2B/qcUoyJUQ3L3FVNGkeFK5
xFsFI7mNUUQxMw1ldX+rK75oeEi/cu5B4nS26sHww2TlvhsggRJ1lTRwl4ms/CGj
Lsu0yjUYV+53+hBTWNejkddpPv/N86ZaKEwUdB4DDsABXdO9aXUsXxTxs6tA+yDZ
XbMIHY8iL7F/nQb4jY/3j1+8slfd0lg5ZvQgxdpVA2i7hUCDv+br
-----END CERTIFICATE-----
